target datalayout = "e-m:e-p270:32:32-p271:32:32-p272:64:64-i64:64-i128:128-f80:128-n8:16:32:64-S128"
target triple = "x86_64-pc-linux-gnu"

%struct.Node = type { i32 }
%struct.ParseState = type { ptr, ptr, i32, i32, ptr, ptr, ptr, ptr, ptr, ptr, i8, ptr, ptr, ptr, ptr, ptr, ptr, i8, ptr, i32, i32, ptr, ptr, i8, i8, ptr, i8, i8, i8, i8, i8, ptr, ptr, ptr, ptr, ptr, ptr }
%struct.ForEachState = type { ptr, i32 }
%struct.List = type { i32, i32, i32, ptr, [0 x %union.ListCell] }
%union.ListCell = type { ptr }
%struct.ParseNamespaceItem = type { ptr, ptr, i32, ptr, ptr, i8, i8, i8, i8, i32 }
%struct.Expr = type { i32 }
%struct.Var = type { %struct.Expr, i32, i16, i32, i32, i32, ptr, i32, i32, i32, i16, i32 }
%struct.RangeTblEntry = type { i32, ptr, ptr, i32, i32, i8, i8, i32, i32, ptr, ptr, i8, i32, i32, ptr, ptr, ptr, ptr, ptr, i8, ptr, ptr, ptr, i32, i8, ptr, ptr, ptr, ptr, double, ptr, i8, i8, ptr }
%struct.FormData_pg_attribute = type { i32, %struct.nameData, i32, i16, i16, i32, i16, i8, i8, i8, i8, i8, i8, i8, i8, i8, i8, i8, i16, i32 }
%struct.nameData = type { [64 x i8] }
%struct.TupleDescData = type { i32, i32, i32, i32, ptr, [0 x %struct.CompactAttribute] }
%struct.CompactAttribute = type { i32, i16, i8, i8, i8, i8, i8, i8, i8 }
%struct.FieldSelect = type { %struct.Expr, ptr, i16, i32, i32, i32 }
%struct.RTEPermissionInfo = type { i32, i32, i8, i64, i32, ptr, ptr, ptr }

; Function Attrs: inlinehint nounwind uwtable
define internal ptr @newNode(i64 noundef %0, i32 noundef %1) #4 {
  %3 = alloca i64, align 8
  %4 = alloca i32, align 4
  %5 = alloca ptr, align 8
  store i64 %0, ptr %3, align 8
  store i32 %1, ptr %4, align 4
  call void @llvm.lifetime.start.p0(i64 8, ptr %5) #8
  %6 = load i64, ptr %3, align 8
  %7 = call ptr @palloc0(i64 noundef %6)
  store ptr %7, ptr %5, align 8
  %8 = load i32, ptr %4, align 4
  %9 = load ptr, ptr %5, align 8
  %10 = getelementptr inbounds nuw %struct.Node, ptr %9, i32 0, i32 0
  store i32 %8, ptr %10, align 4
  %11 = load ptr, ptr %5, align 8
  call void @llvm.lifetime.end.p0(i64 8, ptr %5) #8
  ret ptr %11
}

; Function Attrs: inlinehint nounwind uwtable
define internal ptr @TupleDescAttr(ptr noundef %0, i32 noundef %1) #4 {
  %3 = alloca ptr, align 8
  %4 = alloca i32, align 4
  %5 = alloca ptr, align 8
  store ptr %0, ptr %3, align 8
  store i32 %1, ptr %4, align 4
  call void @llvm.lifetime.start.p0(i64 8, ptr %5) #8
  %6 = load ptr, ptr %3, align 8
  %7 = load ptr, ptr %3, align 8
  %8 = getelementptr inbounds nuw %struct.TupleDescData, ptr %7, i32 0, i32 0
  %9 = load i32, ptr %8, align 8
  %10 = sext i32 %9 to i64
  %11 = mul i64 %10, 16
  %12 = add i64 24, %11
  %13 = getelementptr inbounds nuw i8, ptr %6, i64 %12
  store ptr %13, ptr %5, align 8
  %14 = load ptr, ptr %5, align 8
  %15 = load i32, ptr %4, align 4
  %16 = sext i32 %15 to i64
  %17 = getelementptr inbounds %struct.FormData_pg_attribute, ptr %14, i64 %16
  call void @llvm.lifetime.end.p0(i64 8, ptr %5) #8
  ret ptr %17
}

; Function Attrs: nounwind uwtable
define internal ptr @ExpandSingleTable(ptr noundef %0, ptr noundef %1, i32 noundef %2, i32 noundef %3, i1 noundef zeroext %4) #0 {
  %6 = alloca ptr, align 8
  %7 = alloca ptr, align 8
  %8 = alloca ptr, align 8
  %9 = alloca i32, align 4
  %10 = alloca i32, align 4
  %11 = alloca i8, align 1
  %12 = alloca ptr, align 8
  %13 = alloca ptr, align 8
  %14 = alloca ptr, align 8
  %15 = alloca ptr, align 8
  %16 = alloca %struct.ForEachState, align 8
  %17 = alloca ptr, align 8
  store ptr %0, ptr %7, align 8
  store ptr %1, ptr %8, align 8
  store i32 %2, ptr %9, align 4
  store i32 %3, ptr %10, align 4
  %18 = zext i1 %4 to i8
  store i8 %18, ptr %11, align 1
  %19 = load i8, ptr %11, align 1, !range !4, !noundef !5
  %20 = trunc i8 %19 to i1
  br i1 %20, label %21, label %27

21:                                               ; preds = %5
  %22 = load ptr, ptr %7, align 8
  %23 = load ptr, ptr %8, align 8
  %24 = load i32, ptr %9, align 4
  %25 = load i32, ptr %10, align 4
  %26 = call ptr @expandNSItemAttrs(ptr noundef %22, ptr noundef %23, i32 noundef %24, i1 noundef zeroext true, i32 noundef %25)
  store ptr %26, ptr %6, align 8
  br label %90

27:                                               ; preds = %5
  call void @llvm.lifetime.start.p0(i64 8, ptr %12) #8
  %28 = load ptr, ptr %8, align 8
  %29 = getelementptr inbounds nuw %struct.ParseNamespaceItem, ptr %28, i32 0, i32 1
  %30 = load ptr, ptr %29, align 8
  store ptr %30, ptr %12, align 8
  call void @llvm.lifetime.start.p0(i64 8, ptr %13) #8
  %31 = load ptr, ptr %8, align 8
  %32 = getelementptr inbounds nuw %struct.ParseNamespaceItem, ptr %31, i32 0, i32 3
  %33 = load ptr, ptr %32, align 8
  store ptr %33, ptr %13, align 8
  call void @llvm.lifetime.start.p0(i64 8, ptr %14) #8
  call void @llvm.lifetime.start.p0(i64 8, ptr %15) #8
  %34 = load ptr, ptr %7, align 8
  %35 = load ptr, ptr %8, align 8
  %36 = load i32, ptr %9, align 4
  %37 = load i32, ptr %10, align 4
  %38 = call ptr @expandNSItemVars(ptr noundef %34, ptr noundef %35, i32 noundef %36, i32 noundef %37, ptr noundef null)
  store ptr %38, ptr %14, align 8
  %39 = load ptr, ptr %12, align 8
  %40 = getelementptr inbounds nuw %struct.RangeTblEntry, ptr %39, i32 0, i32 3
  %41 = load i32, ptr %40, align 8
  %42 = icmp eq i32 %41, 0
  br i1 %42, label %43, label %48

43:                                               ; preds = %27
  %44 = load ptr, ptr %13, align 8
  %45 = getelementptr inbounds nuw %struct.RTEPermissionInfo, ptr %44, i32 0, i32 3
  %46 = load i64, ptr %45, align 8
  %47 = or i64 %46, 2
  store i64 %47, ptr %45, align 8
  br label %48

48:                                               ; preds = %43, %27
  call void @llvm.lifetime.start.p0(i64 16, ptr %16) #8
  %49 = getelementptr inbounds nuw %struct.ForEachState, ptr %16, i32 0, i32 0
  %50 = load ptr, ptr %14, align 8
  store ptr %50, ptr %49, align 8
  %51 = getelementptr inbounds nuw %struct.ForEachState, ptr %16, i32 0, i32 1
  store i32 0, ptr %51, align 8
  %52 = getelementptr i8, ptr %16, i64 12
  call void @llvm.memset.p0.i64(ptr align 4 %52, i8 0, i64 4, i1 false)
  br label %53

53:                                               ; preds = %84, %48
  %54 = getelementptr inbounds nuw %struct.ForEachState, ptr %16, i32 0, i32 0
  %55 = load ptr, ptr %54, align 8
  %56 = icmp ne ptr %55, null
  br i1 %56, label %57, label %74

57:                                               ; preds = %53
  %58 = getelementptr inbounds nuw %struct.ForEachState, ptr %16, i32 0, i32 1
  %59 = load i32, ptr %58, align 8
  %60 = getelementptr inbounds nuw %struct.ForEachState, ptr %16, i32 0, i32 0
  %61 = load ptr, ptr %60, align 8
  %62 = getelementptr inbounds nuw %struct.List, ptr %61, i32 0, i32 1
  %63 = load i32, ptr %62, align 4
  %64 = icmp slt i32 %59, %63
  br i1 %64, label %65, label %74

65:                                               ; preds = %57
  %66 = getelementptr inbounds nuw %struct.ForEachState, ptr %16, i32 0, i32 0
  %67 = load ptr, ptr %66, align 8
  %68 = getelementptr inbounds nuw %struct.List, ptr %67, i32 0, i32 3
  %69 = load ptr, ptr %68, align 8
  %70 = getelementptr inbounds nuw %struct.ForEachState, ptr %16, i32 0, i32 1
  %71 = load i32, ptr %70, align 8
  %72 = sext i32 %71 to i64
  %73 = getelementptr inbounds %union.ListCell, ptr %69, i64 %72
  store ptr %73, ptr %15, align 8
  br label %75

74:                                               ; preds = %57, %53
  store ptr null, ptr %15, align 8
  br label %75

75:                                               ; preds = %74, %65
  %76 = phi i32 [ 1, %65 ], [ 0, %74 ]
  %77 = icmp ne i32 %76, 0
  br i1 %77, label %79, label %78

78:                                               ; preds = %75
  call void @llvm.lifetime.end.p0(i64 16, ptr %16) #8
  br label %88

79:                                               ; preds = %75
  call void @llvm.lifetime.start.p0(i64 8, ptr %17) #8
  %80 = load ptr, ptr %15, align 8
  %81 = load ptr, ptr %80, align 8
  store ptr %81, ptr %17, align 8
  %82 = load ptr, ptr %7, align 8
  %83 = load ptr, ptr %17, align 8
  call void @markVarForSelectPriv(ptr noundef %82, ptr noundef %83)
  call void @llvm.lifetime.end.p0(i64 8, ptr %17) #8
  br label %84

84:                                               ; preds = %79
  %85 = getelementptr inbounds nuw %struct.ForEachState, ptr %16, i32 0, i32 1
  %86 = load i32, ptr %85, align 8
  %87 = add i32 %86, 1
  store i32 %87, ptr %85, align 8
  br label %53, !llvm.loop !21

88:                                               ; preds = %78
  %89 = load ptr, ptr %14, align 8
  store ptr %89, ptr %6, align 8
  call void @llvm.lifetime.end.p0(i64 8, ptr %15) #8
  call void @llvm.lifetime.end.p0(i64 8, ptr %14) #8
  call void @llvm.lifetime.end.p0(i64 8, ptr %13) #8
  call void @llvm.lifetime.end.p0(i64 8, ptr %12) #8
  br label %90

90:                                               ; preds = %88, %21
  %91 = load ptr, ptr %6, align 8
  ret ptr %91
}

; Function Attrs: nounwind uwtable
define internal ptr @ExpandRowReference(ptr noundef %0, ptr noundef %1, i1 noundef zeroext %2) #0 {
  %4 = alloca ptr, align 8
  %5 = alloca ptr, align 8
  %6 = alloca ptr, align 8
  %7 = alloca i8, align 1
  %8 = alloca ptr, align 8
  %9 = alloca ptr, align 8
  %10 = alloca i32, align 4
  %11 = alloca i32, align 4
  %12 = alloca ptr, align 8
  %13 = alloca ptr, align 8
  %14 = alloca i32, align 4
  %15 = alloca ptr, align 8
  %16 = alloca ptr, align 8
  %17 = alloca ptr, align 8
  store ptr %0, ptr %5, align 8
  store ptr %1, ptr %6, align 8
  %18 = zext i1 %2 to i8
  store i8 %18, ptr %7, align 1
  call void @llvm.lifetime.start.p0(i64 8, ptr %8) #8
  store ptr null, ptr %8, align 8
  call void @llvm.lifetime.start.p0(i64 8, ptr %9) #8
  call void @llvm.lifetime.start.p0(i64 4, ptr %10) #8
  call void @llvm.lifetime.start.p0(i64 4, ptr %11) #8
  %19 = load ptr, ptr %6, align 8
  %20 = getelementptr inbounds nuw %struct.Node, ptr %19, i32 0, i32 0
  %21 = load i32, ptr %20, align 4
  %22 = icmp eq i32 %21, 6
  br i1 %22, label %23, label %50

23:                                               ; preds = %3
  %24 = load ptr, ptr %6, align 8
  %25 = getelementptr inbounds nuw %struct.Var, ptr %24, i32 0, i32 2
  %26 = load i16, ptr %25, align 8
  %27 = sext i16 %26 to i32
  %28 = icmp eq i32 %27, 0
  br i1 %28, label %29, label %50

29:                                               ; preds = %23
  call void @llvm.lifetime.start.p0(i64 8, ptr %12) #8
  %30 = load ptr, ptr %6, align 8
  store ptr %30, ptr %12, align 8
  call void @llvm.lifetime.start.p0(i64 8, ptr %13) #8
  %31 = load ptr, ptr %5, align 8
  %32 = load ptr, ptr %12, align 8
  %33 = getelementptr inbounds nuw %struct.Var, ptr %32, i32 0, i32 1
  %34 = load i32, ptr %33, align 4
  %35 = load ptr, ptr %12, align 8
  %36 = getelementptr inbounds nuw %struct.Var, ptr %35, i32 0, i32 7
  %37 = load i32, ptr %36, align 8
  %38 = call ptr @GetNSItemByRangeTablePosn(ptr noundef %31, i32 noundef %34, i32 noundef %37)
  store ptr %38, ptr %13, align 8
  %39 = load ptr, ptr %5, align 8
  %40 = load ptr, ptr %13, align 8
  %41 = load ptr, ptr %12, align 8
  %42 = getelementptr inbounds nuw %struct.Var, ptr %41, i32 0, i32 7
  %43 = load i32, ptr %42, align 8
  %44 = load ptr, ptr %12, align 8
  %45 = getelementptr inbounds nuw %struct.Var, ptr %44, i32 0, i32 11
  %46 = load i32, ptr %45, align 8
  %47 = load i8, ptr %7, align 1, !range !4, !noundef !5
  %48 = trunc i8 %47 to i1
  %49 = call ptr @ExpandSingleTable(ptr noundef %39, ptr noundef %40, i32 noundef %43, i32 noundef %46, i1 noundef zeroext %48)
  store ptr %49, ptr %4, align 8
  store i32 1, ptr %14, align 4
  call void @llvm.lifetime.end.p0(i64 8, ptr %13) #8
  call void @llvm.lifetime.end.p0(i64 8, ptr %12) #8
  br label %141

50:                                               ; preds = %23, %3
  %51 = load ptr, ptr %6, align 8
  %52 = getelementptr inbounds nuw %struct.Node, ptr %51, i32 0, i32 0
  %53 = load i32, ptr %52, align 4
  %54 = icmp eq i32 %53, 6
  br i1 %54, label %55, label %64

55:                                               ; preds = %50
  %56 = load ptr, ptr %6, align 8
  %57 = getelementptr inbounds nuw %struct.Var, ptr %56, i32 0, i32 3
  %58 = load i32, ptr %57, align 4
  %59 = icmp eq i32 %58, 2249
  br i1 %59, label %60, label %64

60:                                               ; preds = %55
  %61 = load ptr, ptr %5, align 8
  %62 = load ptr, ptr %6, align 8
  %63 = call ptr @expandRecordVariable(ptr noundef %61, ptr noundef %62, i32 noundef 0)
  store ptr %63, ptr %9, align 8
  br label %67

64:                                               ; preds = %55, %50
  %65 = load ptr, ptr %6, align 8
  %66 = call ptr @get_expr_result_tupdesc(ptr noundef %65, i1 noundef zeroext false)
  store ptr %66, ptr %9, align 8
  br label %67

67:                                               ; preds = %64, %60
  %68 = load ptr, ptr %9, align 8
  %69 = getelementptr inbounds nuw %struct.TupleDescData, ptr %68, i32 0, i32 0
  %70 = load i32, ptr %69, align 8
  store i32 %70, ptr %10, align 4
  store i32 0, ptr %11, align 4
  br label %71

71:                                               ; preds = %136, %67
  %72 = load i32, ptr %11, align 4
  %73 = load i32, ptr %10, align 4
  %74 = icmp slt i32 %72, %73
  br i1 %74, label %75, label %139

75:                                               ; preds = %71
  call void @llvm.lifetime.start.p0(i64 8, ptr %15) #8
  %76 = load ptr, ptr %9, align 8
  %77 = load i32, ptr %11, align 4
  %78 = call ptr @TupleDescAttr(ptr noundef %76, i32 noundef %77)
  store ptr %78, ptr %15, align 8
  call void @llvm.lifetime.start.p0(i64 8, ptr %16) #8
  %79 = load ptr, ptr %15, align 8
  %80 = getelementptr inbounds nuw %struct.FormData_pg_attribute, ptr %79, i32 0, i32 16
  %81 = load i8, ptr %80, align 1, !range !4, !noundef !5
  %82 = trunc i8 %81 to i1
  br i1 %82, label %83, label %84

83:                                               ; preds = %75
  store i32 4, ptr %14, align 4
  br label %133

84:                                               ; preds = %75
  %85 = call ptr @newNode(i64 noundef 32, i32 noundef 25)
  store ptr %85, ptr %16, align 8
  %86 = load ptr, ptr %6, align 8
  %87 = call ptr @copyObjectImpl(ptr noundef %86)
  %88 = load ptr, ptr %16, align 8
  %89 = getelementptr inbounds nuw %struct.FieldSelect, ptr %88, i32 0, i32 1
  store ptr %87, ptr %89, align 8
  %90 = load i32, ptr %11, align 4
  %91 = add i32 %90, 1
  %92 = trunc i32 %91 to i16
  %93 = load ptr, ptr %16, align 8
  %94 = getelementptr inbounds nuw %struct.FieldSelect, ptr %93, i32 0, i32 2
  store i16 %92, ptr %94, align 8
  %95 = load ptr, ptr %15, align 8
  %96 = getelementptr inbounds nuw %struct.FormData_pg_attribute, ptr %95, i32 0, i32 2
  %97 = load i32, ptr %96, align 4
  %98 = load ptr, ptr %16, align 8
  %99 = getelementptr inbounds nuw %struct.FieldSelect, ptr %98, i32 0, i32 3
  store i32 %97, ptr %99, align 4
  %100 = load ptr, ptr %15, align 8
  %101 = getelementptr inbounds nuw %struct.FormData_pg_attribute, ptr %100, i32 0, i32 5
  %102 = load i32, ptr %101, align 4
  %103 = load ptr, ptr %16, align 8
  %104 = getelementptr inbounds nuw %struct.FieldSelect, ptr %103, i32 0, i32 4
  store i32 %102, ptr %104, align 8
  %105 = load ptr, ptr %15, align 8
  %106 = getelementptr inbounds nuw %struct.FormData_pg_attribute, ptr %105, i32 0, i32 19
  %107 = load i32, ptr %106, align 4
  %108 = load ptr, ptr %16, align 8
  %109 = getelementptr inbounds nuw %struct.FieldSelect, ptr %108, i32 0, i32 5
  store i32 %107, ptr %109, align 4
  %110 = load i8, ptr %7, align 1, !range !4, !noundef !5
  %111 = trunc i8 %110 to i1
  br i1 %111, label %112, label %128

112:                                              ; preds = %84
  call void @llvm.lifetime.start.p0(i64 8, ptr %17) #8
  %113 = load ptr, ptr %16, align 8
  %114 = load ptr, ptr %5, align 8
  %115 = getelementptr inbounds nuw %struct.ParseState, ptr %114, i32 0, i32 20
  %116 = load i32, ptr %115, align 4
  %117 = add i32 %116, 1
  store i32 %117, ptr %115, align 4
  %118 = trunc i32 %116 to i16
  %119 = load ptr, ptr %15, align 8
  %120 = getelementptr inbounds nuw %struct.FormData_pg_attribute, ptr %119, i32 0, i32 1
  %121 = getelementptr inbounds nuw %struct.nameData, ptr %120, i32 0, i32 0
  %122 = getelementptr inbounds [64 x i8], ptr %121, i64 0, i64 0
  %123 = call ptr @pstrdup(ptr noundef %122)
  %124 = call ptr @makeTargetEntry(ptr noundef %113, i16 noundef signext %118, ptr noundef %123, i1 noundef zeroext false)
  store ptr %124, ptr %17, align 8
  %125 = load ptr, ptr %8, align 8
  %126 = load ptr, ptr %17, align 8
  %127 = call ptr @lappend(ptr noundef %125, ptr noundef %126)
  store ptr %127, ptr %8, align 8
  call void @llvm.lifetime.end.p0(i64 8, ptr %17) #8
  br label %132

128:                                              ; preds = %84
  %129 = load ptr, ptr %8, align 8
  %130 = load ptr, ptr %16, align 8
  %131 = call ptr @lappend(ptr noundef %129, ptr noundef %130)
  store ptr %131, ptr %8, align 8
  br label %132

132:                                              ; preds = %128, %112
  store i32 0, ptr %14, align 4
  br label %133

133:                                              ; preds = %132, %83
  call void @llvm.lifetime.end.p0(i64 8, ptr %16) #8
  call void @llvm.lifetime.end.p0(i64 8, ptr %15) #8
  %134 = load i32, ptr %14, align 4
  switch i32 %134, label %143 [
    i32 0, label %135
    i32 4, label %136
  ]

135:                                              ; preds = %133
  br label %136

136:                                              ; preds = %135, %133
  %137 = load i32, ptr %11, align 4
  %138 = add i32 %137, 1
  store i32 %138, ptr %11, align 4
  br label %71, !llvm.loop !20

139:                                              ; preds = %71
  %140 = load ptr, ptr %8, align 8
  store ptr %140, ptr %4, align 8
  store i32 1, ptr %14, align 4
  br label %141

141:                                              ; preds = %139, %29
  call void @llvm.lifetime.end.p0(i64 4, ptr %11) #8
  call void @llvm.lifetime.end.p0(i64 4, ptr %10) #8
  call void @llvm.lifetime.end.p0(i64 8, ptr %9) #8
  call void @llvm.lifetime.end.p0(i64 8, ptr %8) #8
  %142 = load ptr, ptr %4, align 8
  ret ptr %142

143:                                              ; preds = %133
  unreachable
}