; Function Attrs: nounwind uwtable
define internal fastcc ptr @ExpandRowReference(ptr noundef %0, ptr noundef %1, i1 noundef zeroext %2) unnamed_addr #0 {
  %4 = load i32, ptr %1, align 4
  %5 = icmp eq i32 %4, 6
  br i1 %5, label %6, label %51

6:                                                ; preds = %3
  %7 = getelementptr inbounds nuw i8, ptr %1, i64 8
  %8 = load i16, ptr %7, align 8
  %9 = icmp eq i16 %8, 0
  br i1 %9, label %10, label %45

10:                                               ; preds = %6
  %11 = getelementptr inbounds nuw i8, ptr %1, i64 4
  %12 = load i32, ptr %11, align 4
  %13 = getelementptr inbounds nuw i8, ptr %1, i64 32
  %14 = load i32, ptr %13, align 8
  %15 = tail call ptr @GetNSItemByRangeTablePosn(ptr noundef %0, i32 noundef %12, i32 noundef %14) #8
  %16 = load i32, ptr %13, align 8
  %17 = getelementptr inbounds nuw i8, ptr %1, i64 48
  %18 = load i32, ptr %17, align 8
  br i1 %2, label %19, label %21

19:                                               ; preds = %10
  %20 = tail call ptr @expandNSItemAttrs(ptr noundef %0, ptr noundef %15, i32 noundef %16, i1 noundef zeroext true, i32 noundef %18) #8
  br label %ExpandSingleTable.exit

21:                                               ; preds = %10
  %22 = getelementptr inbounds nuw i8, ptr %15, i64 8
  %23 = load ptr, ptr %22, align 8
  %24 = getelementptr inbounds nuw i8, ptr %15, i64 24
  %25 = load ptr, ptr %24, align 8
  %26 = tail call ptr @expandNSItemVars(ptr noundef %0, ptr noundef %15, i32 noundef %16, i32 noundef %18, ptr noundef null) #8
  %27 = getelementptr inbounds nuw i8, ptr %23, i64 24
  %28 = load i32, ptr %27, align 8
  %29 = icmp eq i32 %28, 0
  br i1 %29, label %30, label %34

30:                                               ; preds = %21
  %31 = getelementptr inbounds nuw i8, ptr %25, i64 16
  %32 = load i64, ptr %31, align 8
  %33 = or i64 %32, 2
  store i64 %33, ptr %31, align 8
  br label %34

34:                                               ; preds = %30, %21
  %35 = getelementptr inbounds nuw i8, ptr %26, i64 4
  %.not.i = icmp eq ptr %26, null
  br i1 %.not.i, label %ExpandSingleTable.exit, label %.lr.ph.i

.lr.ph.i:                                         ; preds = %34
  %36 = getelementptr inbounds nuw i8, ptr %26, i64 16
  %37 = load i32, ptr %35, align 4
  %38 = icmp sgt i32 %37, 0
  br i1 %38, label %.lr.ph32.i, label %ExpandSingleTable.exit

.lr.ph32.i:                                       ; preds = %.lr.ph.i, %.lr.ph32.i
  %indvars.iv.i = phi i64 [ %indvars.iv.next.i, %.lr.ph32.i ], [ 0, %.lr.ph.i ]
  %39 = load ptr, ptr %36, align 8
  %40 = getelementptr inbounds nuw %union.ListCell, ptr %39, i64 %indvars.iv.i
  %41 = load ptr, ptr %40, align 8
  tail call void @markVarForSelectPriv(ptr noundef %0, ptr noundef %41) #8
  %indvars.iv.next.i = add nuw nsw i64 %indvars.iv.i, 1
  %42 = load i32, ptr %35, align 4
  %43 = sext i32 %42 to i64
  %44 = icmp slt i64 %indvars.iv.next.i, %43
  br i1 %44, label %.lr.ph32.i, label %ExpandSingleTable.exit

45:                                               ; preds = %6
  %46 = getelementptr inbounds nuw i8, ptr %1, i64 12
  %47 = load i32, ptr %46, align 4
  %48 = icmp eq i32 %47, 2249
  br i1 %48, label %49, label %51

49:                                               ; preds = %45
  %50 = tail call ptr @expandRecordVariable(ptr noundef %0, ptr noundef nonnull %1, i32 noundef 0)
  br label %53

51:                                               ; preds = %3, %45
  %52 = tail call ptr @get_expr_result_tupdesc(ptr noundef nonnull %1, i1 noundef zeroext false) #8
  br label %53

53:                                               ; preds = %51, %49
  %.043 = phi ptr [ %50, %49 ], [ %52, %51 ]
  %54 = load i32, ptr %.043, align 8
  %invariant.gep = getelementptr i8, ptr %.043, i64 24
  %55 = icmp sgt i32 %54, 0
  br i1 %55, label %.lr.ph, label %ExpandSingleTable.exit

.lr.ph:                                           ; preds = %53
  %56 = getelementptr inbounds nuw i8, ptr %0, i64 148
  %wide.trip.count54 = zext nneg i32 %54 to i64
  br i1 %2, label %.lr.ph.split.us, label %.lr.ph.split

.lr.ph.split.us:                                  ; preds = %.lr.ph, %87
  %indvars.iv51 = phi i64 [ %indvars.iv.next52, %87 ], [ 0, %.lr.ph ]
  %.04247.us = phi ptr [ %.1.us, %87 ], [ null, %.lr.ph ]
  %57 = load i32, ptr %.043, align 8
  %58 = sext i32 %57 to i64
  %59 = shl nsw i64 %58, 4
  %gep.us = getelementptr i8, ptr %invariant.gep, i64 %59
  %60 = getelementptr inbounds nuw %struct.FormData_pg_attribute, ptr %gep.us, i64 %indvars.iv51
  %61 = getelementptr inbounds nuw i8, ptr %60, i64 91
  %62 = load i8, ptr %61, align 1, !range !4, !noundef !5
  %63 = trunc nuw i8 %62 to i1
  br i1 %63, label %87, label %64

64:                                               ; preds = %.lr.ph.split.us
  %65 = tail call noundef ptr @palloc0(i64 noundef 32) #8
  store i32 25, ptr %65, align 4
  %66 = tail call ptr @copyObjectImpl(ptr noundef nonnull %1) #8
  %67 = getelementptr inbounds nuw i8, ptr %65, i64 8
  store ptr %66, ptr %67, align 8
  %68 = trunc i64 %indvars.iv51 to i16
  %69 = add i16 %68, 1
  %70 = getelementptr inbounds nuw i8, ptr %65, i64 16
  store i16 %69, ptr %70, align 8
  %71 = getelementptr inbounds nuw i8, ptr %60, i64 68
  %72 = load i32, ptr %71, align 4
  %73 = getelementptr inbounds nuw i8, ptr %65, i64 20
  store i32 %72, ptr %73, align 4
  %74 = getelementptr inbounds nuw i8, ptr %60, i64 76
  %75 = load i32, ptr %74, align 4
  %76 = getelementptr inbounds nuw i8, ptr %65, i64 24
  store i32 %75, ptr %76, align 8
  %77 = getelementptr inbounds nuw i8, ptr %60, i64 96
  %78 = load i32, ptr %77, align 4
  %79 = getelementptr inbounds nuw i8, ptr %65, i64 28
  store i32 %78, ptr %79, align 4
  %80 = load i32, ptr %56, align 4
  %81 = add i32 %80, 1
  store i32 %81, ptr %56, align 4
  %82 = trunc i32 %80 to i16
  %83 = getelementptr inbounds nuw i8, ptr %60, i64 4
  %84 = tail call ptr @pstrdup(ptr noundef nonnull %83) #8
  %85 = tail call ptr @makeTargetEntry(ptr noundef nonnull %65, i16 noundef signext %82, ptr noundef %84, i1 noundef zeroext false) #8
  %86 = tail call ptr @lappend(ptr noundef %.04247.us, ptr noundef %85) #8
  br label %87

87:                                               ; preds = %64, %.lr.ph.split.us
  %.1.us = phi ptr [ %.04247.us, %.lr.ph.split.us ], [ %86, %64 ]
  %indvars.iv.next52 = add nuw nsw i64 %indvars.iv51, 1
  %exitcond55.not = icmp eq i64 %indvars.iv.next52, %wide.trip.count54
  br i1 %exitcond55.not, label %ExpandSingleTable.exit, label %.lr.ph.split.us, !llvm.loop !12

.lr.ph.split:                                     ; preds = %.lr.ph, %112
  %indvars.iv = phi i64 [ %indvars.iv.next, %112 ], [ 0, %.lr.ph ]
  %.04247 = phi ptr [ %.1, %112 ], [ null, %.lr.ph ]
  %88 = load i32, ptr %.043, align 8
  %89 = sext i32 %88 to i64
  %90 = shl nsw i64 %89, 4
  %gep = getelementptr i8, ptr %invariant.gep, i64 %90
  %91 = getelementptr inbounds nuw %struct.FormData_pg_attribute, ptr %gep, i64 %indvars.iv
  %92 = getelementptr inbounds nuw i8, ptr %91, i64 91
  %93 = load i8, ptr %92, align 1, !range !4, !noundef !5
  %94 = trunc nuw i8 %93 to i1
  br i1 %94, label %112, label %95

95:                                               ; preds = %.lr.ph.split
  %96 = tail call noundef ptr @palloc0(i64 noundef 32) #8
  store i32 25, ptr %96, align 4
  %97 = tail call ptr @copyObjectImpl(ptr noundef nonnull %1) #8
  %98 = getelementptr inbounds nuw i8, ptr %96, i64 8
  store ptr %97, ptr %98, align 8
  %99 = trunc i64 %indvars.iv to i16
  %100 = add i16 %99, 1
  %101 = getelementptr inbounds nuw i8, ptr %96, i64 16
  store i16 %100, ptr %101, align 8
  %102 = getelementptr inbounds nuw i8, ptr %91, i64 68
  %103 = load i32, ptr %102, align 4
  %104 = getelementptr inbounds nuw i8, ptr %96, i64 20
  store i32 %103, ptr %104, align 4
  %105 = getelementptr inbounds nuw i8, ptr %91, i64 76
  %106 = load i32, ptr %105, align 4
  %107 = getelementptr inbounds nuw i8, ptr %96, i64 24
  store i32 %106, ptr %107, align 8
  %108 = getelementptr inbounds nuw i8, ptr %91, i64 96
  %109 = load i32, ptr %108, align 4
  %110 = getelementptr inbounds nuw i8, ptr %96, i64 28
  store i32 %109, ptr %110, align 4
  %111 = tail call ptr @lappend(ptr noundef %.04247, ptr noundef nonnull %96) #8
  br label %112

112:                                              ; preds = %95, %.lr.ph.split
  %.1 = phi ptr [ %.04247, %.lr.ph.split ], [ %111, %95 ]
  %indvars.iv.next = add nuw nsw i64 %indvars.iv, 1
  %exitcond.not = icmp eq i64 %indvars.iv.next, %wide.trip.count54
  br i1 %exitcond.not, label %ExpandSingleTable.exit, label %.lr.ph.split, !llvm.loop !12

ExpandSingleTable.exit:                           ; preds = %112, %87, %.lr.ph32.i, %53, %.lr.ph.i, %34, %19
  %.0 = phi ptr [ %20, %19 ], [ null, %34 ], [ %26, %.lr.ph.i ], [ null, %53 ], [ %26, %.lr.ph32.i ], [ %.1.us, %87 ], [ %.1, %112 ]
  ret ptr %.0
}